; ModuleID = '54/1114.c'
source_filename = "54/1114.c"
target datalayout = "e-m:e-p270:32:32-p271:32:32-p272:64:64-i64:64-f80:128-n8:16:32:64-S128"
target triple = "x86_64-pc-linux-gnu"

@.str = private unnamed_addr constant [5 x i8] c"%d%d\00", align 1
@.str.1 = private unnamed_addr constant [3 x i8] c"%u\00", align 1

; Function Attrs: noinline nounwind uwtable
define dso_local i32 @jisuan(i32 %0, i32 %1) #0 {
  %3 = alloca i32, align 4
  %4 = alloca i32, align 4
  %5 = alloca i32, align 4
  %6 = alloca i32, align 4
  %7 = alloca i32, align 4
  %8 = alloca i32, align 4
  %9 = alloca i32, align 4
  store i32 %0, i32* %3, align 4
  store i32 %1, i32* %4, align 4
  %10 = load i32, i32* %4, align 4
  store i32 %10, i32* %5, align 4
  store i32 1, i32* %6, align 4
  store i32 0, i32* %9, align 4
  br label %11

11:                                               ; preds = %43, %2
  %12 = load i32, i32* %9, align 4
  %13 = load i32, i32* %3, align 4
  %14 = sub nsw i32 %13, 1
  %15 = icmp slt i32 %12, %14
  br i1 %15, label %16, label %46

16:                                               ; preds = %11
  %17 = load i32, i32* %6, align 4
  store i32 %17, i32* %7, align 4
  br label %18

18:                                               ; preds = %40, %16
  %19 = load i32, i32* %9, align 4
  %20 = load i32, i32* %3, align 4
  %21 = sub nsw i32 %20, 1
  %22 = icmp slt i32 %19, %21
  br i1 %22, label %23, label %43

23:                                               ; preds = %18
  %24 = load i32, i32* %7, align 4
  %25 = load i32, i32* %3, align 4
  %26 = mul i32 %24, %25
  %27 = load i32, i32* %5, align 4
  %28 = add i32 %26, %27
  store i32 %28, i32* %8, align 4
  %29 = load i32, i32* %8, align 4
  %30 = load i32, i32* %3, align 4
  %31 = sub nsw i32 %30, 1
  %32 = urem i32 %29, %31
  %33 = icmp ne i32 %32, 0
  br i1 %33, label %34, label %35

34:                                               ; preds = %23
  store i32 0, i32* %9, align 4
  br label %43

35:                                               ; preds = %23
  %36 = load i32, i32* %8, align 4
  %37 = load i32, i32* %3, align 4
  %38 = sub nsw i32 %37, 1
  %39 = udiv i32 %36, %38
  store i32 %39, i32* %7, align 4
  br label %40

40:                                               ; preds = %35
  %41 = load i32, i32* %9, align 4
  %42 = add nsw i32 %41, 1
  store i32 %42, i32* %9, align 4
  br label %18

43:                                               ; preds = %34, %18
  %44 = load i32, i32* %6, align 4
  %45 = add i32 %44, 1
  store i32 %45, i32* %6, align 4
  br label %11

46:                                               ; preds = %11
  %47 = load i32, i32* %7, align 4
  %48 = load i32, i32* %3, align 4
  %49 = mul i32 %47, %48
  %50 = load i32, i32* %5, align 4
  %51 = add i32 %49, %50
  store i32 %51, i32* %8, align 4
  %52 = load i32, i32* %8, align 4
  ret i32 %52
}

; Function Attrs: noinline nounwind uwtable
define dso_local i32 @main() #0 {
  %1 = alloca i32, align 4
  %2 = alloca i32, align 4
  %3 = alloca i32, align 4
  %4 = call i32 (i8*, ...) @__isoc99_scanf(i8* getelementptr inbounds ([5 x i8], [5 x i8]* @.str, i64 0, i64 0), i32* %1, i32* %2)
  %5 = load i32, i32* %1, align 4
  %6 = load i32, i32* %2, align 4
  %7 = call i32 @jisuan(i32 %5, i32 %6)
  store i32 %7, i32* %3, align 4
  %8 = load i32, i32* %3, align 4
  %9 = call i32 (i8*, ...) @printf(i8* getelementptr inbounds ([3 x i8], [3 x i8]* @.str.1, i64 0, i64 0), i32 %8)
  %10 = call i32 @getchar()
  %11 = call i32 @getchar()
  ret i32 0
}

declare dso_local i32 @__isoc99_scanf(i8*, ...) #1

declare dso_local i32 @printf(i8*, ...) #1

declare dso_local i32 @getchar() #1


!llvm.module.flags = !{!0}
!llvm.ident = !{!1}

!0 = !{i32 1, !"wchar_size", i32 4}
!1 = !{!"clang version 10.0.0-4ubuntu1 "}
